; Function Attrs: nounwind uwtable
define noalias noundef ptr @Abc_NtkDfsHie(ptr noundef captures(none) %0, i32 noundef %1) local_unnamed_addr #0 {
  %3 = getelementptr inbounds nuw i8, ptr %0, i64 232
  %4 = load ptr, ptr %3, align 8, !tbaa !43
  %.not.i = icmp eq ptr %4, null
  br i1 %.not.i, label %5, label %Abc_NtkIncrementTravId.exit

5:                                                ; preds = %2
  %6 = getelementptr inbounds nuw i8, ptr %0, i64 224
  %7 = getelementptr i8, ptr %0, i64 32
  %.val.i = load ptr, ptr %7, align 8, !tbaa !35
  %8 = getelementptr i8, ptr %.val.i, i64 4
  %.val.val.i = load i32, ptr %8, align 4, !tbaa !41
  %9 = add nsw i32 %.val.val.i, 500
  %10 = load i32, ptr %6, align 8, !tbaa !29
  %.not.i.i.i = icmp slt i32 %10, %9
  br i1 %.not.i.i.i, label %11, label %Vec_IntGrow.exit.i.i

11:                                               ; preds = %5
  %12 = sext i32 %9 to i64
  %13 = shl nsw i64 %12, 2
  %14 = tail call noalias ptr @malloc(i64 noundef %13) #22
  store ptr %14, ptr %3, align 8, !tbaa !30
  store i32 %9, ptr %6, align 8, !tbaa !29
  br label %Vec_IntGrow.exit.i.i

Vec_IntGrow.exit.i.i:                             ; preds = %11, %5
  %15 = phi ptr [ %14, %11 ], [ null, %5 ]
  %16 = icmp sgt i32 %.val.val.i, -500
  br i1 %16, label %.lr.ph.i.i, label %Vec_IntFill.exit.i

.lr.ph.i.i:                                       ; preds = %Vec_IntGrow.exit.i.i
  %17 = zext nneg i32 %9 to i64
  %18 = shl nuw nsw i64 %17, 2
  tail call void @llvm.memset.p0.i64(ptr align 4 %15, i8 0, i64 %18, i1 false), !tbaa !31
  br label %Vec_IntFill.exit.i

Vec_IntFill.exit.i:                               ; preds = %.lr.ph.i.i, %Vec_IntGrow.exit.i.i
  %19 = getelementptr inbounds nuw i8, ptr %0, i64 228
  store i32 %9, ptr %19, align 4, !tbaa !28
  br label %Abc_NtkIncrementTravId.exit

Abc_NtkIncrementTravId.exit:                      ; preds = %2, %Vec_IntFill.exit.i
  %20 = getelementptr inbounds nuw i8, ptr %0, i64 216
  %21 = load i32, ptr %20, align 8, !tbaa !14
  %22 = add nsw i32 %21, 1
  store i32 %22, ptr %20, align 8, !tbaa !14
  %23 = tail call noalias dereferenceable_or_null(16) ptr @malloc(i64 noundef 16) #22
  %24 = getelementptr inbounds nuw i8, ptr %23, i64 4
  store i32 0, ptr %24, align 4, !tbaa !41
  store i32 100, ptr %23, align 8, !tbaa !42
  %25 = tail call noalias dereferenceable_or_null(800) ptr @malloc(i64 noundef 800) #22
  %26 = getelementptr inbounds nuw i8, ptr %23, i64 8
  store ptr %25, ptr %26, align 8, !tbaa !36
  %27 = getelementptr i8, ptr %0, i64 48
  %.val2325 = load ptr, ptr %27, align 8, !tbaa !78
  %28 = getelementptr i8, ptr %.val2325, i64 4
  %.val23.val26 = load i32, ptr %28, align 4, !tbaa !41
  %29 = icmp sgt i32 %.val23.val26, 0
  br i1 %29, label %.lr.ph, label %.critedge

.lr.ph:                                           ; preds = %Abc_NtkIncrementTravId.exit, %.lr.ph
  %indvars.iv = phi i64 [ %indvars.iv.next, %.lr.ph ], [ 0, %Abc_NtkIncrementTravId.exit ]
  %.val2328 = phi ptr [ %.val23, %.lr.ph ], [ %.val2325, %Abc_NtkIncrementTravId.exit ]
  %30 = getelementptr i8, ptr %.val2328, i64 8
  %.val24.val = load ptr, ptr %30, align 8, !tbaa !36
  %31 = getelementptr inbounds nuw ptr, ptr %.val24.val, i64 %indvars.iv
  %32 = load ptr, ptr %31, align 8, !tbaa !38
  tail call void @Abc_NtkDfsHie_rec(ptr noundef %32, ptr noundef nonnull %23)
  %indvars.iv.next = add nuw nsw i64 %indvars.iv, 1
  %.val23 = load ptr, ptr %27, align 8, !tbaa !78
  %33 = getelementptr i8, ptr %.val23, i64 4
  %.val23.val = load i32, ptr %33, align 4, !tbaa !41
  %34 = sext i32 %.val23.val to i64
  %35 = icmp slt i64 %indvars.iv.next, %34
  br i1 %35, label %.lr.ph, label %.critedge, !llvm.loop !90

.critedge:                                        ; preds = %.lr.ph, %Abc_NtkIncrementTravId.exit
  %.not = icmp eq i32 %1, 0
  br i1 %.not, label %.critedge2, label %.preheader

.preheader:                                       ; preds = %.critedge
  %36 = getelementptr inbounds nuw i8, ptr %0, i64 32
  %37 = load ptr, ptr %36, align 8, !tbaa !35
  %38 = getelementptr i8, ptr %37, i64 4
  %.val29 = load i32, ptr %38, align 4, !tbaa !41
  %39 = icmp sgt i32 %.val29, 0
  br i1 %39, label %.lr.ph31, label %.critedge2

.lr.ph31:                                         ; preds = %.preheader, %48
  %indvars.iv33 = phi i64 [ %indvars.iv.next34, %48 ], [ 0, %.preheader ]
  %40 = phi ptr [ %49, %48 ], [ %37, %.preheader ]
  %41 = getelementptr i8, ptr %40, i64 8
  %.val22.val = load ptr, ptr %41, align 8, !tbaa !36
  %42 = getelementptr inbounds nuw ptr, ptr %.val22.val, i64 %indvars.iv33
  %43 = load ptr, ptr %42, align 8, !tbaa !38
  %44 = icmp eq ptr %43, null
  br i1 %44, label %48, label %45

45:                                               ; preds = %.lr.ph31
  %46 = tail call fastcc i32 @Abc_NodeIsTravIdCurrent(ptr noundef nonnull %43)
  %.not21 = icmp eq i32 %46, 0
  br i1 %.not21, label %47, label %48

47:                                               ; preds = %45
  tail call void @Abc_NtkDfs_rec(ptr noundef nonnull %43, ptr noundef nonnull %23)
  br label %48

48:                                               ; preds = %.lr.ph31, %47, %45
  %indvars.iv.next34 = add nuw nsw i64 %indvars.iv33, 1
  %49 = load ptr, ptr %36, align 8, !tbaa !35
  %50 = getelementptr i8, ptr %49, i64 4
  %.val = load i32, ptr %50, align 4, !tbaa !41
  %51 = sext i32 %.val to i64
  %52 = icmp slt i64 %indvars.iv.next34, %51
  br i1 %52, label %.lr.ph31, label %.critedge2, !llvm.loop !91

.critedge2:                                       ; preds = %48, %.preheader, %.critedge
  ret ptr %23
}